; Function Attrs: mustprogress uwtable
define dso_local void @_ZN18cmInstallGeneratorC2ENSt7__cxx1112basic_stringIcSt11char_traitsIcESaIcEEERKSt6vectorIS5_SaIS5_EES5_NS_12MessageLevelEbb19cmListFileBacktrace(ptr noundef nonnull align 8 dereferenceable(200) %0, ptr noundef %1, ptr noundef nonnull align 8 dereferenceable(24) %2, ptr noundef %3, i32 noundef %4, i1 noundef zeroext %5, i1 noundef zeroext %6, ptr nocapture noundef %7) unnamed_addr #3 align 2 personality ptr @__gxx_personality_v0 {
  %9 = alloca %"class.std::__cxx11::basic_string", align 8
  %10 = alloca %"class.std::allocator", align 1
  %11 = alloca %"class.std::vector", align 8
  call void @_ZNSaIcEC1Ev(ptr noundef nonnull align 1 dereferenceable(1) %10) #14
  %12 = invoke noundef ptr @_ZNSt7__cxx1112basic_stringIcSt11char_traitsIcESaIcEE13_M_local_dataEv(ptr noundef nonnull align 8 dereferenceable(32) %9)
          to label %.noexc unwind label %35

.noexc:                                           ; preds = %8
  invoke void @_ZNSt7__cxx1112basic_stringIcSt11char_traitsIcESaIcEE12_Alloc_hiderC1EPcRKS3_(ptr noundef nonnull align 8 dereferenceable(8) %9, ptr noundef %12, ptr noundef nonnull align 1 dereferenceable(1) %10)
          to label %.noexc10 unwind label %35

.noexc10:                                         ; preds = %.noexc
  invoke void @_ZNSt7__cxx1112basic_stringIcSt11char_traitsIcESaIcEE12_M_constructIPKcEEvT_S8_St20forward_iterator_tag(ptr noundef nonnull align 8 dereferenceable(32) %9, ptr noundef nonnull @.str, ptr noundef nonnull getelementptr inbounds ([26 x i8], ptr @.str, i64 0, i64 25))
          to label %_ZNSt7__cxx1112basic_stringIcSt11char_traitsIcESaIcEEC2IS3_EEPKcRKS3_.exit unwind label %13

13:                                               ; preds = %.noexc10
  %14 = landingpad { ptr, i32 }
          cleanup
  call void @_ZNSaIcED2Ev(ptr noundef nonnull align 1 dereferenceable(1) %9) #14
  br label %.body

_ZNSt7__cxx1112basic_stringIcSt11char_traitsIcESaIcEEC2IS3_EEPKcRKS3_.exit: ; preds = %.noexc10
  invoke void @_ZNSt6vectorINSt7__cxx1112basic_stringIcSt11char_traitsIcESaIcEEESaIS5_EEC2ERKS7_(ptr noundef nonnull align 8 dereferenceable(24) %11, ptr noundef nonnull align 8 dereferenceable(24) %2)
          to label %15 unwind label %37

15:                                               ; preds = %_ZNSt7__cxx1112basic_stringIcSt11char_traitsIcESaIcEEC2IS3_EEPKcRKS3_.exit
  invoke void @_ZN17cmScriptGeneratorC2ENSt7__cxx1112basic_stringIcSt11char_traitsIcESaIcEEESt6vectorIS5_SaIS5_EE(ptr noundef nonnull align 8 dereferenceable(105) %0, ptr noundef nonnull %9, ptr noundef nonnull %11)
          to label %16 unwind label %39

16:                                               ; preds = %15
  %17 = load ptr, ptr %11, align 8
  %18 = getelementptr inbounds i8, ptr %11, i64 8
  %19 = load ptr, ptr %18, align 8
  %.not4.i.i.i.i = icmp eq ptr %17, %19
  br i1 %.not4.i.i.i.i, label %_ZSt8_DestroyIPNSt7__cxx1112basic_stringIcSt11char_traitsIcESaIcEEES5_EvT_S7_RSaIT0_E.exit.i, label %.lr.ph.i.i.i.i

.lr.ph.i.i.i.i:                                   ; preds = %16, %.lr.ph.i.i.i.i
  %.05.i.i.i.i = phi ptr [ %20, %.lr.ph.i.i.i.i ], [ %17, %16 ]
  call void @_ZNSt7__cxx1112basic_stringIcSt11char_traitsIcESaIcEED1Ev(ptr noundef nonnull align 8 dereferenceable(32) %.05.i.i.i.i) #14
  %20 = getelementptr inbounds i8, ptr %.05.i.i.i.i, i64 32
  %.not.i.i.i.i = icmp eq ptr %20, %19
  br i1 %.not.i.i.i.i, label %_ZSt8_DestroyIPNSt7__cxx1112basic_stringIcSt11char_traitsIcESaIcEEES5_EvT_S7_RSaIT0_E.exitthread-pre-split.i, label %.lr.ph.i.i.i.i, !llvm.loop !5

_ZSt8_DestroyIPNSt7__cxx1112basic_stringIcSt11char_traitsIcESaIcEEES5_EvT_S7_RSaIT0_E.exitthread-pre-split.i: ; preds = %.lr.ph.i.i.i.i
  %.pr.i = load ptr, ptr %11, align 8
  br label %_ZSt8_DestroyIPNSt7__cxx1112basic_stringIcSt11char_traitsIcESaIcEEES5_EvT_S7_RSaIT0_E.exit.i

_ZSt8_DestroyIPNSt7__cxx1112basic_stringIcSt11char_traitsIcESaIcEEES5_EvT_S7_RSaIT0_E.exit.i: ; preds = %_ZSt8_DestroyIPNSt7__cxx1112basic_stringIcSt11char_traitsIcESaIcEEES5_EvT_S7_RSaIT0_E.exitthread-pre-split.i, %16
  %21 = phi ptr [ %.pr.i, %_ZSt8_DestroyIPNSt7__cxx1112basic_stringIcSt11char_traitsIcESaIcEEES5_EvT_S7_RSaIT0_E.exitthread-pre-split.i ], [ %17, %16 ]
  %.not.i.i.i = icmp eq ptr %21, null
  br i1 %.not.i.i.i, label %_ZNSt6vectorINSt7__cxx1112basic_stringIcSt11char_traitsIcESaIcEEESaIS5_EED2Ev.exit, label %22

22:                                               ; preds = %_ZSt8_DestroyIPNSt7__cxx1112basic_stringIcSt11char_traitsIcESaIcEEES5_EvT_S7_RSaIT0_E.exit.i
  call void @_ZdlPv(ptr noundef nonnull %21) #15
  br label %_ZNSt6vectorINSt7__cxx1112basic_stringIcSt11char_traitsIcESaIcEEESaIS5_EED2Ev.exit

_ZNSt6vectorINSt7__cxx1112basic_stringIcSt11char_traitsIcESaIcEEESaIS5_EED2Ev.exit: ; preds = %_ZSt8_DestroyIPNSt7__cxx1112basic_stringIcSt11char_traitsIcESaIcEEES5_EvT_S7_RSaIT0_E.exit.i, %22
  %23 = zext i1 %5 to i8
  %24 = zext i1 %6 to i8
  call void @_ZNSt7__cxx1112basic_stringIcSt11char_traitsIcESaIcEED1Ev(ptr noundef nonnull align 8 dereferenceable(32) %9) #14
  call void @_ZNSaIcED1Ev(ptr noundef nonnull align 1 dereferenceable(1) %10) #14
  store ptr getelementptr inbounds ({ [13 x ptr] }, ptr @_ZTV18cmInstallGenerator, i64 0, i32 0, i64 2), ptr %0, align 8
  %25 = getelementptr inbounds i8, ptr %0, i64 112
  call void @_ZNSt7__cxx1112basic_stringIcSt11char_traitsIcESaIcEEC1EOS4_(ptr noundef nonnull align 8 dereferenceable(32) %25, ptr noundef nonnull align 8 dereferenceable(32) %1) #14
  %26 = getelementptr inbounds i8, ptr %0, i64 144
  call void @_ZNSt7__cxx1112basic_stringIcSt11char_traitsIcESaIcEEC1EOS4_(ptr noundef nonnull align 8 dereferenceable(32) %26, ptr noundef nonnull align 8 dereferenceable(32) %3) #14
  %27 = getelementptr inbounds i8, ptr %0, i64 176
  store i32 %4, ptr %27, align 8
  %28 = getelementptr inbounds i8, ptr %0, i64 180
  store i8 %23, ptr %28, align 4
  %29 = getelementptr inbounds i8, ptr %0, i64 181
  store i8 %24, ptr %29, align 1
  %30 = getelementptr inbounds i8, ptr %0, i64 184
  %31 = load ptr, ptr %7, align 8
  store ptr %31, ptr %30, align 8
  %32 = getelementptr inbounds i8, ptr %0, i64 192
  store ptr null, ptr %32, align 8
  %33 = getelementptr inbounds i8, ptr %7, i64 8
  %34 = load ptr, ptr %33, align 8
  store ptr null, ptr %33, align 8
  store ptr %34, ptr %32, align 8
  store ptr null, ptr %7, align 8
  ret void

35:                                               ; preds = %.noexc, %8
  %36 = landingpad { ptr, i32 }
          cleanup
  br label %.body

37:                                               ; preds = %_ZNSt7__cxx1112basic_stringIcSt11char_traitsIcESaIcEEC2IS3_EEPKcRKS3_.exit
  %38 = landingpad { ptr, i32 }
          cleanup
  br label %41

39:                                               ; preds = %15
  %40 = landingpad { ptr, i32 }
          cleanup
  call void @_ZNSt6vectorINSt7__cxx1112basic_stringIcSt11char_traitsIcESaIcEEESaIS5_EED2Ev(ptr noundef nonnull align 8 dereferenceable(24) %11) #14
  br label %41

41:                                               ; preds = %39, %37
  %.pn = phi { ptr, i32 } [ %40, %39 ], [ %38, %37 ]
  call void @_ZNSt7__cxx1112basic_stringIcSt11char_traitsIcESaIcEED1Ev(ptr noundef nonnull align 8 dereferenceable(32) %9) #14
  br label %.body

.body:                                            ; preds = %35, %13, %41
  %.pn.pn = phi { ptr, i32 } [ %.pn, %41 ], [ %36, %35 ], [ %14, %13 ]
  call void @_ZNSaIcED1Ev(ptr noundef nonnull align 1 dereferenceable(1) %10) #14
  resume { ptr, i32 } %.pn.pn
}